; Function Attrs: mustprogress nounwind uwtable
define dso_local void @_ZN4llvm9LiveRange19MergeValueInAsValueERKS0_PKNS_6VNInfoEPS3_(ptr noundef nonnull align 8 dereferenceable(104) %0, ptr noundef nonnull align 8 dereferenceable(104) %1, ptr noundef readnone %2, ptr noundef %3) local_unnamed_addr #0 align 2 {
  %5 = alloca %"struct.llvm::LiveRange::Segment", align 8
  %6 = alloca %"class.llvm::LiveRangeUpdater", align 8
  store ptr %0, ptr %6, align 8
  %7 = getelementptr inbounds nuw i8, ptr %6, i64 8
  store i64 0, ptr %7, align 8
  %8 = getelementptr inbounds nuw i8, ptr %6, i64 32
  %9 = getelementptr inbounds nuw i8, ptr %6, i64 48
  call void @_ZN4llvm15SmallVectorBaseIjEC2EPvm(ptr noundef nonnull align 8 dereferenceable(400) %8, ptr noundef nonnull %9, i64 noundef 16) #14
  %10 = load ptr, ptr %1, align 8
  %11 = call noundef i64 @_ZNK4llvm15SmallVectorBaseIjE4sizeEv(ptr noundef nonnull align 8 dereferenceable(16) %1) #14
  %12 = getelementptr inbounds %"struct.llvm::LiveRange::Segment", ptr %10, i64 %11
  %.not14 = icmp eq i64 %11, 0
  br i1 %.not14, label %._crit_edge, label %.lr.ph

.lr.ph:                                           ; preds = %4
  %13 = getelementptr inbounds nuw i8, ptr %5, i64 8
  %14 = getelementptr inbounds nuw i8, ptr %5, i64 16
  br label %15

15:                                               ; preds = %.lr.ph, %21
  %.015 = phi ptr [ %10, %.lr.ph ], [ %22, %21 ]
  %16 = getelementptr inbounds nuw i8, ptr %.015, i64 16
  %17 = load ptr, ptr %16, align 8
  %18 = icmp eq ptr %17, %2
  br i1 %18, label %19, label %21

19:                                               ; preds = %15
  %.sroa.01.0.copyload = load i64, ptr %.015, align 8
  %20 = getelementptr inbounds nuw i8, ptr %.015, i64 8
  %.sroa.0.0.copyload = load i64, ptr %20, align 8
  call void @llvm.lifetime.start.p0(i64 24, ptr nonnull %5)
  store i64 %.sroa.01.0.copyload, ptr %5, align 8
  store i64 %.sroa.0.0.copyload, ptr %13, align 8
  store ptr %3, ptr %14, align 8
  call void @_ZN4llvm16LiveRangeUpdater3addENS_9LiveRange7SegmentE(ptr noundef nonnull align 8 dereferenceable(432) %6, ptr noundef nonnull byval(%"struct.llvm::LiveRange::Segment") align 8 %5)
  call void @llvm.lifetime.end.p0(i64 24, ptr nonnull %5)
  br label %21

21:                                               ; preds = %15, %19
  %22 = getelementptr inbounds nuw i8, ptr %.015, i64 24
  %.not = icmp eq ptr %22, %12
  br i1 %.not, label %._crit_edge, label %15

._crit_edge:                                      ; preds = %21, %4
  call void @_ZN4llvm16LiveRangeUpdater5flushEv(ptr noundef nonnull align 8 dereferenceable(432) %6)
  %23 = call noundef i64 @_ZNK4llvm15SmallVectorBaseIjE4sizeEv(ptr noundef nonnull align 8 dereferenceable(400) %8) #14
  %24 = load ptr, ptr %8, align 8
  %25 = icmp eq ptr %24, %9
  br i1 %25, label %_ZN4llvm16LiveRangeUpdaterD2Ev.exit, label %26

26:                                               ; preds = %._crit_edge
  call void @free(ptr noundef %24) #14
  br label %_ZN4llvm16LiveRangeUpdaterD2Ev.exit

_ZN4llvm16LiveRangeUpdaterD2Ev.exit:              ; preds = %._crit_edge, %26
  ret void
}